target datalayout = "e-m:e-p270:32:32-p271:32:32-p272:64:64-i64:64-i128:128-f80:128-n8:16:32:64-S128"
target triple = "x86_64-pc-linux-gnu"

; Function Attrs: nounwind uwtable
define internal i64 @H5VM_vector_reduce_product(i32 noundef %0, ptr noundef %1) #0 {
  %3 = alloca i32, align 4
  %4 = alloca ptr, align 8
  %5 = alloca i64, align 8
  store i32 %0, ptr %3, align 4
  store ptr %1, ptr %4, align 8
  store i64 1, ptr %5, align 8
  %6 = load i32, ptr %3, align 4
  %7 = icmp ne i32 %6, 0
  br i1 %7, label %8, label %14

8:                                                ; preds = %2
  %9 = load ptr, ptr %4, align 8
  %10 = icmp ne ptr %9, null
  br i1 %10, label %14, label %11

11:                                               ; preds = %8
  br label %12

12:                                               ; preds = %11
  store i64 0, ptr %5, align 8
  br label %26

13:                                               ; No predecessors!
  br label %14

14:                                               ; preds = %13, %8, %2
  br label %15

15:                                               ; preds = %19, %14
  %16 = load i32, ptr %3, align 4
  %17 = add i32 %16, -1
  store i32 %17, ptr %3, align 4
  %18 = icmp ne i32 %16, 0
  br i1 %18, label %19, label %25

19:                                               ; preds = %15
  %20 = load ptr, ptr %4, align 8
  %21 = getelementptr inbounds i64, ptr %20, i32 1
  store ptr %21, ptr %4, align 8
  %22 = load i64, ptr %20, align 8
  %23 = load i64, ptr %5, align 8
  %24 = mul i64 %23, %22
  store i64 %24, ptr %5, align 8
  br label %15

25:                                               ; preds = %15
  br label %26

26:                                               ; preds = %25, %12
  %27 = load i64, ptr %5, align 8
  ret i64 %27
}

; Function Attrs: nounwind uwtable
define i32 @H5VM_stride_fill(i32 noundef %0, i64 noundef %1, ptr noundef %2, ptr noundef %3, ptr noundef %4, i32 noundef %5) #0 {
  %7 = alloca i32, align 4
  %8 = alloca i64, align 8
  %9 = alloca ptr, align 8
  %10 = alloca ptr, align 8
  %11 = alloca ptr, align 8
  %12 = alloca i32, align 4
  %13 = alloca ptr, align 8
  %14 = alloca [33 x i64], align 16
  %15 = alloca i64, align 8
  %16 = alloca i64, align 8
  %17 = alloca i32, align 4
  %18 = alloca i8, align 1
  store i32 %0, ptr %7, align 4
  store i64 %1, ptr %8, align 8
  store ptr %2, ptr %9, align 8
  store ptr %3, ptr %10, align 8
  store ptr %4, ptr %11, align 8
  store i32 %5, ptr %12, align 4
  %19 = load ptr, ptr %11, align 8
  store ptr %19, ptr %13, align 8
  br label %20

20:                                               ; preds = %6
  %21 = load ptr, ptr %9, align 8
  %22 = icmp ne ptr %21, null
  br i1 %22, label %23, label %29

23:                                               ; preds = %20
  %24 = getelementptr inbounds [33 x i64], ptr %14, i64 0, i64 0
  %25 = load ptr, ptr %9, align 8
  %26 = load i32, ptr %7, align 4
  %27 = zext i32 %26 to i64
  %28 = mul i64 %27, 8
  call void @llvm.memcpy.p0.p0.i64(ptr align 16 %24, ptr align 8 %25, i64 %28, i1 false)
  br label %34

29:                                               ; preds = %20
  %30 = getelementptr inbounds [33 x i64], ptr %14, i64 0, i64 0
  %31 = load i32, ptr %7, align 4
  %32 = zext i32 %31 to i64
  %33 = mul i64 %32, 8
  call void @llvm.memset.p0.i64(ptr align 16 %30, i8 0, i64 %33, i1 false)
  br label %34

34:                                               ; preds = %29, %23
  br label %35

35:                                               ; preds = %34
  %36 = load i32, ptr %7, align 4
  %37 = load ptr, ptr %9, align 8
  %38 = call i64 @H5VM_vector_reduce_product(i32 noundef %36, ptr noundef %37)
  store i64 %38, ptr %15, align 8
  store i64 0, ptr %16, align 8
  br label %39

39:                                               ; preds = %87, %35
  %40 = load i64, ptr %16, align 8
  %41 = load i64, ptr %15, align 8
  %42 = icmp ult i64 %40, %41
  br i1 %42, label %43, label %90

43:                                               ; preds = %39
  %44 = load ptr, ptr %13, align 8
  %45 = load i32, ptr %12, align 4
  %46 = trunc i32 %45 to i8
  %47 = load i64, ptr %8, align 8
  call void @llvm.memset.p0.i64(ptr align 1 %44, i8 %46, i64 %47, i1 false)
  %48 = load i32, ptr %7, align 4
  %49 = sub i32 %48, 1
  store i32 %49, ptr %17, align 4
  store i8 1, ptr %18, align 1
  br label %50

50:                                               ; preds = %83, %43
  %51 = load i32, ptr %17, align 4
  %52 = icmp sge i32 %51, 0
  br i1 %52, label %53, label %56

53:                                               ; preds = %50
  %54 = load i8, ptr %18, align 1
  %55 = trunc i8 %54 to i1
  br label %56

56:                                               ; preds = %53, %50
  %57 = phi i1 [ false, %50 ], [ %55, %53 ]
  br i1 %57, label %58, label %86

58:                                               ; preds = %56
  %59 = load ptr, ptr %10, align 8
  %60 = load i32, ptr %17, align 4
  %61 = sext i32 %60 to i64
  %62 = getelementptr inbounds i64, ptr %59, i64 %61
  %63 = load i64, ptr %62, align 8
  %64 = load ptr, ptr %13, align 8
  %65 = getelementptr inbounds i8, ptr %64, i64 %63
  store ptr %65, ptr %13, align 8
  %66 = load i32, ptr %17, align 4
  %67 = sext i32 %66 to i64
  %68 = getelementptr inbounds [33 x i64], ptr %14, i64 0, i64 %67
  %69 = load i64, ptr %68, align 8
  %70 = add i64 %69, -1
  store i64 %70, ptr %68, align 8
  %71 = icmp ne i64 %70, 0
  br i1 %71, label %72, label %73

72:                                               ; preds = %58
  store i8 0, ptr %18, align 1
  br label %82

73:                                               ; preds = %58
  %74 = load ptr, ptr %9, align 8
  %75 = load i32, ptr %17, align 4
  %76 = sext i32 %75 to i64
  %77 = getelementptr inbounds i64, ptr %74, i64 %76
  %78 = load i64, ptr %77, align 8
  %79 = load i32, ptr %17, align 4
  %80 = sext i32 %79 to i64
  %81 = getelementptr inbounds [33 x i64], ptr %14, i64 0, i64 %80
  store i64 %78, ptr %81, align 8
  br label %82

82:                                               ; preds = %73, %72
  br label %83

83:                                               ; preds = %82
  %84 = load i32, ptr %17, align 4
  %85 = add nsw i32 %84, -1
  store i32 %85, ptr %17, align 4
  br label %50

86:                                               ; preds = %56
  br label %87

87:                                               ; preds = %86
  %88 = load i64, ptr %16, align 8
  %89 = add i64 %88, 1
  store i64 %89, ptr %16, align 8
  br label %39

90:                                               ; preds = %39
  ret i32 0
}