; Function Attrs: nofree norecurse nosync nounwind memory(readwrite, inaccessiblemem: none) uwtable
define noundef i32 @H5VM_stride_fill(i32 noundef %0, i64 noundef %1, ptr noundef readonly %2, ptr nocapture noundef readonly %3, ptr nocapture noundef writeonly %4, i32 noundef %5) local_unnamed_addr #2 {
  %7 = alloca [33 x i64], align 16
  %.not = icmp eq ptr %2, null
  %8 = zext i32 %0 to i64
  %9 = shl nuw nsw i64 %8, 3
  %10 = icmp eq i32 %0, 0
  br i1 %.not, label %.split, label %.split28

.split28:                                         ; preds = %6
  call void @llvm.memcpy.p0.p0.i64(ptr nonnull align 16 %7, ptr nonnull align 8 %2, i64 %9, i1 false)
  br i1 %10, label %.lr.ph46.thread, label %.lr.ph.i

.lr.ph46.thread:                                  ; preds = %.split28
  %11 = trunc i32 %5 to i8
  br label %.lr.ph46.split.preheader

.lr.ph.i:                                         ; preds = %.split28, %.lr.ph.i
  %.011.i = phi i64 [ %15, %.lr.ph.i ], [ 1, %.split28 ]
  %.0610.i = phi ptr [ %13, %.lr.ph.i ], [ %2, %.split28 ]
  %.079.i = phi i32 [ %12, %.lr.ph.i ], [ %0, %.split28 ]
  %12 = add i32 %.079.i, -1
  %13 = getelementptr inbounds i8, ptr %.0610.i, i64 8
  %14 = load i64, ptr %.0610.i, align 8
  %15 = mul i64 %14, %.011.i
  %.not.i = icmp eq i32 %12, 0
  br i1 %.not.i, label %H5VM_vector_reduce_product.exit, label %.lr.ph.i

.split:                                           ; preds = %6
  call void @llvm.memset.p0.i64(ptr nonnull align 16 %7, i8 0, i64 %9, i1 false)
  %.mux.i33 = zext i1 %10 to i64
  br label %H5VM_vector_reduce_product.exit

H5VM_vector_reduce_product.exit:                  ; preds = %.lr.ph.i, %.split
  %phi.call = phi i64 [ %.mux.i33, %.split ], [ %15, %.lr.ph.i ]
  %.not48 = icmp eq i64 %phi.call, 0
  br i1 %.not48, label %._crit_edge47, label %.lr.ph46

.lr.ph46:                                         ; preds = %H5VM_vector_reduce_product.exit
  %16 = trunc i32 %5 to i8
  %.02340 = add i32 %0, -1
  %17 = icmp sgt i32 %.02340, -1
  br i1 %17, label %.lr.ph.us.preheader, label %.lr.ph46.split.preheader

.lr.ph46.split.preheader:                         ; preds = %.lr.ph46.thread, %.lr.ph46
  %18 = phi i8 [ %11, %.lr.ph46.thread ], [ %16, %.lr.ph46 ]
  %phi.call5457 = phi i64 [ 1, %.lr.ph46.thread ], [ %phi.call, %.lr.ph46 ]
  br label %.lr.ph46.split

.lr.ph.us.preheader:                              ; preds = %.lr.ph46
  %19 = zext nneg i32 %.02340 to i64
  br label %.lr.ph.us

.lr.ph.us:                                        ; preds = %.lr.ph.us.preheader, %._crit_edge.us
  %.02445.us = phi i64 [ %32, %._crit_edge.us ], [ 0, %.lr.ph.us.preheader ]
  %.02544.us = phi ptr [ %23, %._crit_edge.us ], [ %4, %.lr.ph.us.preheader ]
  tail call void @llvm.memset.p0.i64(ptr align 1 %.02544.us, i8 %16, i64 %1, i1 false)
  br label %20

20:                                               ; preds = %.lr.ph.us, %27
  %indvars.iv = phi i64 [ %19, %.lr.ph.us ], [ %indvars.iv.next, %27 ]
  %.12641.us = phi ptr [ %.02544.us, %.lr.ph.us ], [ %23, %27 ]
  %21 = getelementptr inbounds i64, ptr %3, i64 %indvars.iv
  %22 = load i64, ptr %21, align 8
  %23 = getelementptr inbounds i8, ptr %.12641.us, i64 %22
  %24 = getelementptr inbounds [33 x i64], ptr %7, i64 0, i64 %indvars.iv
  %25 = load i64, ptr %24, align 8
  %26 = add i64 %25, -1
  store i64 %26, ptr %24, align 8
  %.not30.us = icmp eq i64 %26, 0
  br i1 %.not30.us, label %27, label %._crit_edge.us

27:                                               ; preds = %20
  %28 = getelementptr inbounds i64, ptr %2, i64 %indvars.iv
  %29 = load i64, ptr %28, align 8
  store i64 %29, ptr %24, align 8
  %indvars.iv.next = add nsw i64 %indvars.iv, -1
  %30 = icmp sgt i64 %indvars.iv, 0
  %31 = and i1 %30, %.not30.us
  br i1 %31, label %20, label %._crit_edge.us

._crit_edge.us:                                   ; preds = %20, %27
  %32 = add nuw i64 %.02445.us, 1
  %exitcond51.not = icmp eq i64 %32, %phi.call
  br i1 %exitcond51.not, label %._crit_edge47, label %.lr.ph.us

.lr.ph46.split:                                   ; preds = %.lr.ph46.split.preheader, %.lr.ph46.split
  %.02445 = phi i64 [ %33, %.lr.ph46.split ], [ 0, %.lr.ph46.split.preheader ]
  tail call void @llvm.memset.p0.i64(ptr align 1 %4, i8 %18, i64 %1, i1 false)
  %33 = add nuw i64 %.02445, 1
  %exitcond.not = icmp eq i64 %33, %phi.call5457
  br i1 %exitcond.not, label %._crit_edge47, label %.lr.ph46.split

._crit_edge47:                                    ; preds = %.lr.ph46.split, %._crit_edge.us, %H5VM_vector_reduce_product.exit
  ret i32 0
}